; Function Attrs: nounwind uwtable
define noundef ptr @phpdbg_find_breakbase_ex(i64 noundef %0, ptr nocapture noundef writeonly %1, ptr nocapture noundef writeonly %2, ptr nocapture noundef writeonly %3) local_unnamed_addr #1 {
  %5 = tail call ptr @zend_hash_index_find(ptr noundef nonnull getelementptr inbounds (%struct._zend_phpdbg_globals, ptr @phpdbg_globals, i64 0, i32 0, i64 10), i64 noundef %0) #14
  %.not = icmp eq ptr %5, null
  br i1 %.not, label %.thread, label %6

.thread:                                          ; preds = %4
  store ptr null, ptr %1, align 8
  br label %.loopexit

6:                                                ; preds = %4
  %7 = load ptr, ptr %5, align 8, !nonnull !4, !noundef !4
  store ptr %7, ptr %1, align 8
  %8 = getelementptr inbounds i8, ptr %7, i64 8
  %9 = getelementptr inbounds i8, ptr %7, i64 24
  %10 = load i32, ptr %9, align 8
  %.not4650 = icmp eq i32 %10, 0
  br i1 %.not4650, label %.loopexit, label %.lr.ph.preheader

.lr.ph.preheader:                                 ; preds = %6
  %11 = getelementptr inbounds i8, ptr %7, i64 16
  %12 = load ptr, ptr %11, align 8
  br label %.lr.ph

.lr.ph:                                           ; preds = %.lr.ph.preheader, %34
  %.03754 = phi i32 [ %35, %34 ], [ %10, %.lr.ph.preheader ]
  %.03853 = phi ptr [ %.1, %34 ], [ %12, %.lr.ph.preheader ]
  %.04052 = phi i32 [ %.141, %34 ], [ 0, %.lr.ph.preheader ]
  %.04251 = phi ptr [ %.143, %34 ], [ null, %.lr.ph.preheader ]
  %13 = load i32, ptr %8, align 8
  %14 = and i32 %13, 4
  %.not47 = icmp eq i32 %14, 0
  br i1 %.not47, label %19, label %15

15:                                               ; preds = %.lr.ph
  %16 = getelementptr inbounds i8, ptr %.03853, i64 16
  %17 = zext i32 %.04052 to i64
  %18 = add i32 %.04052, 1
  br label %25

19:                                               ; preds = %.lr.ph
  %20 = getelementptr inbounds i8, ptr %.03853, i64 32
  %21 = getelementptr inbounds i8, ptr %.03853, i64 16
  %22 = load i64, ptr %21, align 8
  %23 = getelementptr inbounds i8, ptr %.03853, i64 24
  %24 = load ptr, ptr %23, align 8
  br label %25

25:                                               ; preds = %19, %15
  %.143 = phi ptr [ %.04251, %15 ], [ %24, %19 ]
  %.141 = phi i32 [ %18, %15 ], [ %.04052, %19 ]
  %.039 = phi i64 [ %17, %15 ], [ %22, %19 ]
  %.1 = phi ptr [ %16, %15 ], [ %20, %19 ]
  %26 = getelementptr inbounds i8, ptr %.03853, i64 8
  %27 = load i8, ptr %26, align 8
  %28 = icmp eq i8 %27, 0
  br i1 %28, label %34, label %29

29:                                               ; preds = %25
  store i64 %.039, ptr %2, align 8
  store ptr %.143, ptr %3, align 8
  %30 = load ptr, ptr %.03853, align 8
  %31 = load i32, ptr %30, align 8
  %32 = sext i32 %31 to i64
  %33 = icmp eq i64 %32, %0
  br i1 %33, label %.loopexit, label %34

34:                                               ; preds = %29, %25
  %35 = add i32 %.03754, -1
  %.not46 = icmp eq i32 %35, 0
  br i1 %.not46, label %.loopexit, label %.lr.ph

.loopexit:                                        ; preds = %29, %34, %6, %.thread
  %.036 = phi ptr [ null, %.thread ], [ null, %6 ], [ %30, %29 ], [ null, %34 ]
  ret ptr %.036
}